; Function Attrs: mustprogress uwtable
define hidden void @_ZN4cvc58internal6theory5arith2nl28ArithNlCompareProofGenerator13getCompareLitERKNS0_12NodeTemplateILb1EEE(ptr dead_on_unwind noalias writable sret(%"class.cvc5::internal::NodeTemplate") align 8 %0, ptr noundef nonnull readonly align 8 captures(none) dereferenceable(8) %1) local_unnamed_addr #3 align 2 personality ptr @__gxx_personality_v0 {
  %3 = alloca %"class.cvc5::internal::expr::Attribute", align 1
  %4 = load ptr, ptr %1, align 8, !tbaa !6, !noalias !222
  %5 = getelementptr inbounds nuw i8, ptr %4, i64 16
  %6 = load ptr, ptr %5, align 8, !tbaa !59, !noalias !222
  %7 = getelementptr inbounds nuw i8, ptr %6, i64 80
  %8 = load ptr, ptr %7, align 8, !tbaa !63, !noalias !225
  call void @llvm.lifetime.start.p0(i64 1, ptr nonnull %3) #24, !noalias !225
  call void @_ZNK4cvc58internal4expr4attr16AttributeManager12getAttributeINS1_9AttributeINS0_6theory5arith2nl28ArithNlCompareLitAttributeIdENS0_12NodeTemplateILb1EEEEEEENT_10value_typeEPNS1_9NodeValueERKSD_(ptr dead_on_unwind writable sret(%"class.cvc5::internal::NodeTemplate") align 8 %0, ptr noundef nonnull align 8 dereferenceable(344) %8, ptr noundef nonnull %4, ptr noundef nonnull align 1 dereferenceable(1) %3)
  call void @llvm.lifetime.end.p0(i64 1, ptr nonnull %3) #24, !noalias !225
  ret void
}